target datalayout = "e-m:e-p270:32:32-p271:32:32-p272:64:64-i64:64-i128:128-f80:128-n8:16:32:64-S128"
target triple = "x86_64-pc-linux-gnu"

%struct.H5FD_t = type { i64, ptr, i64, i32, i64, i64, i64, i64, i64, i8 }
%struct.H5FD_class_t = type { i32, i32, ptr, i64, i32, ptr, ptr, ptr, ptr, i64, ptr, ptr, ptr, i64, ptr, ptr, ptr, ptr, ptr, ptr, ptr, ptr, ptr, ptr, ptr, ptr, ptr, ptr, ptr, ptr, ptr, ptr, ptr, ptr, ptr, ptr, ptr, ptr, ptr, [7 x i32] }

@.str.1 = private unnamed_addr constant [103 x i8] c"generated/home/dtcxzyw/WorkSpace/Projects/compilers/llvm-opt-benchmark/bench/hdf5/hdf5/src/H5FDspace.c\00", align 1
@__func__.H5FD__alloc_real = private unnamed_addr constant [17 x i8] c"H5FD__alloc_real\00", align 1
@H5E_VFL_g = external global i64, align 8
@H5E_NOSPACE_g = external global i64, align 8
@.str.2 = private unnamed_addr constant [33 x i8] c"driver allocation request failed\00", align 1
@.str.3 = private unnamed_addr constant [33 x i8] c"driver eoa update request failed\00", align 1
@__func__.H5FD__extend = private unnamed_addr constant [13 x i8] c"H5FD__extend\00", align 1
@.str.13 = private unnamed_addr constant [31 x i8] c"file allocation request failed\00", align 1

; Function Attrs: nounwind uwtable
define internal i64 @H5FD__extend(ptr noundef %0, i32 noundef %1, i64 noundef %2) #0 {
  %4 = alloca ptr, align 8
  %5 = alloca i32, align 4
  %6 = alloca i64, align 8
  %7 = alloca i64, align 8
  %8 = alloca i64, align 8
  %9 = alloca i8, align 1
  store ptr %0, ptr %4, align 8
  store i32 %1, ptr %5, align 4
  store i64 %2, ptr %6, align 8
  store i64 -1, ptr %8, align 8
  store i8 0, ptr %9, align 1
  %10 = load ptr, ptr %4, align 8
  %11 = getelementptr inbounds %struct.H5FD_t, ptr %10, i32 0, i32 1
  %12 = load ptr, ptr %11, align 8
  %13 = getelementptr inbounds %struct.H5FD_class_t, ptr %12, i32 0, i32 23
  %14 = load ptr, ptr %13, align 8
  %15 = load ptr, ptr %4, align 8
  %16 = load i32, ptr %5, align 4
  %17 = call i64 %14(ptr noundef %15, i32 noundef %16)
  store i64 %17, ptr %7, align 8
  %18 = load i64, ptr %7, align 8
  %19 = icmp eq i64 -1, %18
  br i1 %19, label %39, label %20

20:                                               ; preds = %3
  %21 = load i64, ptr %7, align 8
  %22 = load i64, ptr %6, align 8
  %23 = add i64 %21, %22
  %24 = icmp eq i64 -1, %23
  br i1 %24, label %39, label %25

25:                                               ; preds = %20
  %26 = load i64, ptr %7, align 8
  %27 = load i64, ptr %6, align 8
  %28 = add i64 %26, %27
  %29 = load i64, ptr %7, align 8
  %30 = icmp ult i64 %28, %29
  br i1 %30, label %39, label %31

31:                                               ; preds = %25
  %32 = load i64, ptr %7, align 8
  %33 = load i64, ptr %6, align 8
  %34 = add i64 %32, %33
  %35 = load ptr, ptr %4, align 8
  %36 = getelementptr inbounds %struct.H5FD_t, ptr %35, i32 0, i32 5
  %37 = load i64, ptr %36, align 8
  %38 = icmp ugt i64 %34, %37
  br i1 %38, label %39, label %54

39:                                               ; preds = %31, %25, %20, %3
  br label %40

40:                                               ; preds = %39
  br label %41

41:                                               ; preds = %40
  br label %42

42:                                               ; preds = %41
  %43 = load i64, ptr @H5E_VFL_g, align 8
  %44 = load i64, ptr @H5E_NOSPACE_g, align 8
  %45 = call i32 (ptr, ptr, i32, i64, i64, ptr, ...) @H5E_printf_stack(ptr noundef @.str.1, ptr noundef @__func__.H5FD__extend, i32 noundef 104, i64 noundef %43, i64 noundef %44, ptr noundef @.str.13)
  br label %46

46:                                               ; preds = %42
  store i8 1, ptr %9, align 1
  %47 = load i8, ptr %9, align 1
  %48 = trunc i8 %47 to i1
  %49 = zext i1 %48 to i8
  store i8 %49, ptr %9, align 1
  br label %50

50:                                               ; preds = %46
  br label %51

51:                                               ; preds = %50
  store i64 -1, ptr %8, align 8
  br label %85

52:                                               ; No predecessors!
  br label %53

53:                                               ; preds = %52
  br label %54

54:                                               ; preds = %53, %31
  %55 = load i64, ptr %7, align 8
  store i64 %55, ptr %8, align 8
  %56 = load i64, ptr %6, align 8
  %57 = load i64, ptr %7, align 8
  %58 = add i64 %57, %56
  store i64 %58, ptr %7, align 8
  %59 = load ptr, ptr %4, align 8
  %60 = getelementptr inbounds %struct.H5FD_t, ptr %59, i32 0, i32 1
  %61 = load ptr, ptr %60, align 8
  %62 = getelementptr inbounds %struct.H5FD_class_t, ptr %61, i32 0, i32 24
  %63 = load ptr, ptr %62, align 8
  %64 = load ptr, ptr %4, align 8
  %65 = load i32, ptr %5, align 4
  %66 = load i64, ptr %7, align 8
  %67 = call i32 %63(ptr noundef %64, i32 noundef %65, i64 noundef %66)
  %68 = icmp slt i32 %67, 0
  br i1 %68, label %69, label %84

69:                                               ; preds = %54
  br label %70

70:                                               ; preds = %69
  br label %71

71:                                               ; preds = %70
  br label %72

72:                                               ; preds = %71
  %73 = load i64, ptr @H5E_VFL_g, align 8
  %74 = load i64, ptr @H5E_NOSPACE_g, align 8
  %75 = call i32 (ptr, ptr, i32, i64, i64, ptr, ...) @H5E_printf_stack(ptr noundef @.str.1, ptr noundef @__func__.H5FD__extend, i32 noundef 112, i64 noundef %73, i64 noundef %74, ptr noundef @.str.13)
  br label %76

76:                                               ; preds = %72
  store i8 1, ptr %9, align 1
  %77 = load i8, ptr %9, align 1
  %78 = trunc i8 %77 to i1
  %79 = zext i1 %78 to i8
  store i8 %79, ptr %9, align 1
  br label %80

80:                                               ; preds = %76
  br label %81

81:                                               ; preds = %80
  store i64 -1, ptr %8, align 8
  br label %85

82:                                               ; No predecessors!
  br label %83

83:                                               ; preds = %82
  br label %84

84:                                               ; preds = %83, %54
  br label %85

85:                                               ; preds = %84, %81, %51
  %86 = load i64, ptr %8, align 8
  ret i64 %86
}

; Function Attrs: nounwind uwtable
define i64 @H5FD__alloc_real(ptr noundef %0, i32 noundef %1, i64 noundef %2, ptr noundef %3, ptr noundef %4) #0 {
  %6 = alloca ptr, align 8
  %7 = alloca i32, align 4
  %8 = alloca i64, align 8
  %9 = alloca ptr, align 8
  %10 = alloca ptr, align 8
  %11 = alloca i64, align 8
  %12 = alloca i64, align 8
  %13 = alloca i64, align 8
  %14 = alloca i64, align 8
  %15 = alloca i8, align 1
  %16 = alloca i64, align 8
  %17 = alloca i8, align 1
  %18 = alloca i64, align 8
  store ptr %0, ptr %6, align 8
  store i32 %1, ptr %7, align 4
  store i64 %2, ptr %8, align 8
  store ptr %3, ptr %9, align 8
  store ptr %4, ptr %10, align 8
  %19 = load i64, ptr %8, align 8
  store i64 %19, ptr %11, align 8
  store i64 0, ptr %14, align 8
  store i64 -1, ptr %16, align 8
  store i8 0, ptr %17, align 1
  %20 = load ptr, ptr %6, align 8
  %21 = getelementptr inbounds %struct.H5FD_t, ptr %20, i32 0, i32 1
  %22 = load ptr, ptr %21, align 8
  %23 = getelementptr inbounds %struct.H5FD_class_t, ptr %22, i32 0, i32 19
  %24 = load ptr, ptr %23, align 8
  %25 = icmp ne ptr %24, null
  br i1 %25, label %26, label %34

26:                                               ; preds = %5
  %27 = load ptr, ptr %6, align 8
  %28 = getelementptr inbounds %struct.H5FD_t, ptr %27, i32 0, i32 1
  %29 = load ptr, ptr %28, align 8
  %30 = getelementptr inbounds %struct.H5FD_class_t, ptr %29, i32 0, i32 19
  %31 = load ptr, ptr %30, align 8
  %32 = load ptr, ptr %6, align 8
  %33 = call i32 %31(ptr noundef %32, ptr noundef %14)
  br label %34

34:                                               ; preds = %26, %5
  %35 = load i64, ptr %14, align 8
  %36 = and i64 %35, 8192
  %37 = icmp ne i64 %36, 0
  %38 = zext i1 %37 to i8
  store i8 %38, ptr %15, align 1
  %39 = load ptr, ptr %6, align 8
  %40 = getelementptr inbounds %struct.H5FD_t, ptr %39, i32 0, i32 1
  %41 = load ptr, ptr %40, align 8
  %42 = getelementptr inbounds %struct.H5FD_class_t, ptr %41, i32 0, i32 23
  %43 = load ptr, ptr %42, align 8
  %44 = load ptr, ptr %6, align 8
  %45 = load i32, ptr %7, align 4
  %46 = call i64 %43(ptr noundef %44, i32 noundef %45)
  store i64 %46, ptr %12, align 8
  store i64 0, ptr %13, align 8
  %47 = load ptr, ptr %6, align 8
  %48 = getelementptr inbounds %struct.H5FD_t, ptr %47, i32 0, i32 9
  %49 = load i8, ptr %48, align 8
  %50 = trunc i8 %49 to i1
  br i1 %50, label %92, label %51

51:                                               ; preds = %34
  %52 = load ptr, ptr %6, align 8
  %53 = getelementptr inbounds %struct.H5FD_t, ptr %52, i32 0, i32 8
  %54 = load i64, ptr %53, align 8
  %55 = icmp ugt i64 %54, 1
  br i1 %55, label %56, label %92

56:                                               ; preds = %51
  %57 = load i64, ptr %11, align 8
  %58 = load ptr, ptr %6, align 8
  %59 = getelementptr inbounds %struct.H5FD_t, ptr %58, i32 0, i32 7
  %60 = load i64, ptr %59, align 8
  %61 = icmp uge i64 %57, %60
  br i1 %61, label %62, label %92

62:                                               ; preds = %56
  %63 = load i64, ptr %12, align 8
  %64 = load ptr, ptr %6, align 8
  %65 = getelementptr inbounds %struct.H5FD_t, ptr %64, i32 0, i32 8
  %66 = load i64, ptr %65, align 8
  %67 = urem i64 %63, %66
  store i64 %67, ptr %18, align 8
  %68 = icmp ugt i64 %67, 0
  br i1 %68, label %69, label %91

69:                                               ; preds = %62
  %70 = load ptr, ptr %6, align 8
  %71 = getelementptr inbounds %struct.H5FD_t, ptr %70, i32 0, i32 8
  %72 = load i64, ptr %71, align 8
  %73 = load i64, ptr %18, align 8
  %74 = sub i64 %72, %73
  store i64 %74, ptr %13, align 8
  %75 = load ptr, ptr %9, align 8
  %76 = icmp ne ptr %75, null
  br i1 %76, label %77, label %84

77:                                               ; preds = %69
  %78 = load i64, ptr %12, align 8
  %79 = load ptr, ptr %6, align 8
  %80 = getelementptr inbounds %struct.H5FD_t, ptr %79, i32 0, i32 6
  %81 = load i64, ptr %80, align 8
  %82 = sub i64 %78, %81
  %83 = load ptr, ptr %9, align 8
  store i64 %82, ptr %83, align 8
  br label %84

84:                                               ; preds = %77, %69
  %85 = load ptr, ptr %10, align 8
  %86 = icmp ne ptr %85, null
  br i1 %86, label %87, label %90

87:                                               ; preds = %84
  %88 = load i64, ptr %13, align 8
  %89 = load ptr, ptr %10, align 8
  store i64 %88, ptr %89, align 8
  br label %90

90:                                               ; preds = %87, %84
  br label %91

91:                                               ; preds = %90, %62
  br label %92

92:                                               ; preds = %91, %56, %51, %34
  %93 = load ptr, ptr %6, align 8
  %94 = getelementptr inbounds %struct.H5FD_t, ptr %93, i32 0, i32 1
  %95 = load ptr, ptr %94, align 8
  %96 = getelementptr inbounds %struct.H5FD_class_t, ptr %95, i32 0, i32 21
  %97 = load ptr, ptr %96, align 8
  %98 = icmp ne ptr %97, null
  br i1 %98, label %99, label %137

99:                                               ; preds = %92
  %100 = load ptr, ptr %6, align 8
  %101 = getelementptr inbounds %struct.H5FD_t, ptr %100, i32 0, i32 1
  %102 = load ptr, ptr %101, align 8
  %103 = getelementptr inbounds %struct.H5FD_class_t, ptr %102, i32 0, i32 21
  %104 = load ptr, ptr %103, align 8
  %105 = load ptr, ptr %6, align 8
  %106 = load i32, ptr %7, align 4
  %107 = call i64 @H5CX_get_dxpl()
  %108 = load i8, ptr %15, align 1
  %109 = trunc i8 %108 to i1
  br i1 %109, label %110, label %112

110:                                              ; preds = %99
  %111 = load i64, ptr %8, align 8
  br label %116

112:                                              ; preds = %99
  %113 = load i64, ptr %8, align 8
  %114 = load i64, ptr %13, align 8
  %115 = add i64 %113, %114
  br label %116

116:                                              ; preds = %112, %110
  %117 = phi i64 [ %111, %110 ], [ %115, %112 ]
  %118 = call i64 %104(ptr noundef %105, i32 noundef %106, i64 noundef %107, i64 noundef %117)
  store i64 %118, ptr %16, align 8
  %119 = load i64, ptr %16, align 8
  %120 = icmp ne i64 %119, -1
  br i1 %120, label %136, label %121

121:                                              ; preds = %116
  br label %122

122:                                              ; preds = %121
  br label %123

123:                                              ; preds = %122
  br label %124

124:                                              ; preds = %123
  %125 = load i64, ptr @H5E_VFL_g, align 8
  %126 = load i64, ptr @H5E_NOSPACE_g, align 8
  %127 = call i32 (ptr, ptr, i32, i64, i64, ptr, ...) @H5E_printf_stack(ptr noundef @.str.1, ptr noundef @__func__.H5FD__alloc_real, i32 noundef 184, i64 noundef %125, i64 noundef %126, ptr noundef @.str.2)
  br label %128

128:                                              ; preds = %124
  store i8 1, ptr %17, align 1
  %129 = load i8, ptr %17, align 1
  %130 = trunc i8 %129 to i1
  %131 = zext i1 %130 to i8
  store i8 %131, ptr %17, align 1
  br label %132

132:                                              ; preds = %128
  br label %133

133:                                              ; preds = %132
  store i64 -1, ptr %16, align 8
  br label %192

134:                                              ; No predecessors!
  br label %135

135:                                              ; preds = %134
  br label %136

136:                                              ; preds = %135, %116
  br label %162

137:                                              ; preds = %92
  %138 = load ptr, ptr %6, align 8
  %139 = load i32, ptr %7, align 4
  %140 = load i64, ptr %8, align 8
  %141 = load i64, ptr %13, align 8
  %142 = add i64 %140, %141
  %143 = call i64 @H5FD__extend(ptr noundef %138, i32 noundef %139, i64 noundef %142)
  store i64 %143, ptr %16, align 8
  %144 = load i64, ptr %16, align 8
  %145 = icmp ne i64 %144, -1
  br i1 %145, label %161, label %146

146:                                              ; preds = %137
  br label %147

147:                                              ; preds = %146
  br label %148

148:                                              ; preds = %147
  br label %149

149:                                              ; preds = %148
  %150 = load i64, ptr @H5E_VFL_g, align 8
  %151 = load i64, ptr @H5E_NOSPACE_g, align 8
  %152 = call i32 (ptr, ptr, i32, i64, i64, ptr, ...) @H5E_printf_stack(ptr noundef @.str.1, ptr noundef @__func__.H5FD__alloc_real, i32 noundef 189, i64 noundef %150, i64 noundef %151, ptr noundef @.str.3)
  br label %153

153:                                              ; preds = %149
  store i8 1, ptr %17, align 1
  %154 = load i8, ptr %17, align 1
  %155 = trunc i8 %154 to i1
  %156 = zext i1 %155 to i8
  store i8 %156, ptr %17, align 1
  br label %157

157:                                              ; preds = %153
  br label %158

158:                                              ; preds = %157
  store i64 -1, ptr %16, align 8
  br label %192

159:                                              ; No predecessors!
  br label %160

160:                                              ; preds = %159
  br label %161

161:                                              ; preds = %160, %137
  br label %162

162:                                              ; preds = %161, %136
  %163 = load i8, ptr %15, align 1
  %164 = trunc i8 %163 to i1
  br i1 %164, label %169, label %165

165:                                              ; preds = %162
  %166 = load i64, ptr %13, align 8
  %167 = load i64, ptr %16, align 8
  %168 = add i64 %167, %166
  store i64 %168, ptr %16, align 8
  br label %169

169:                                              ; preds = %165, %162
  %170 = load ptr, ptr %6, align 8
  %171 = getelementptr inbounds %struct.H5FD_t, ptr %170, i32 0, i32 9
  %172 = load i8, ptr %171, align 8
  %173 = trunc i8 %172 to i1
  br i1 %173, label %186, label %174

174:                                              ; preds = %169
  %175 = load ptr, ptr %6, align 8
  %176 = getelementptr inbounds %struct.H5FD_t, ptr %175, i32 0, i32 8
  %177 = load i64, ptr %176, align 8
  %178 = icmp ugt i64 %177, 1
  br i1 %178, label %179, label %186

179:                                              ; preds = %174
  %180 = load i64, ptr %11, align 8
  %181 = load ptr, ptr %6, align 8
  %182 = getelementptr inbounds %struct.H5FD_t, ptr %181, i32 0, i32 7
  %183 = load i64, ptr %182, align 8
  %184 = icmp uge i64 %180, %183
  br i1 %184, label %185, label %186

185:                                              ; preds = %179
  br label %186

186:                                              ; preds = %185, %179, %174, %169
  %187 = load ptr, ptr %6, align 8
  %188 = getelementptr inbounds %struct.H5FD_t, ptr %187, i32 0, i32 6
  %189 = load i64, ptr %188, align 8
  %190 = load i64, ptr %16, align 8
  %191 = sub i64 %190, %189
  store i64 %191, ptr %16, align 8
  br label %192

192:                                              ; preds = %186, %158, %133
  %193 = load i64, ptr %16, align 8
  ret i64 %193
}