; Function Attrs: nounwind uwtable
define i64 @H5FD__alloc_real(ptr noundef %0, i32 noundef %1, i64 noundef %2, ptr noundef writeonly %3, ptr noundef writeonly %4) local_unnamed_addr #0 {
  %6 = alloca i64, align 8
  store i64 0, ptr %6, align 8
  %7 = getelementptr inbounds nuw i8, ptr %0, i64 8
  %8 = load ptr, ptr %7, align 8
  %9 = getelementptr inbounds nuw i8, ptr %8, i64 144
  %10 = load ptr, ptr %9, align 8
  %.not = icmp eq ptr %10, null
  br i1 %.not, label %15, label %11

11:                                               ; preds = %5
  %12 = call i32 %10(ptr noundef nonnull %0, ptr noundef nonnull %6) #2
  %.pre = load i64, ptr %6, align 8
  %.pre63 = load ptr, ptr %7, align 8
  %13 = and i64 %.pre, 8192
  %14 = icmp eq i64 %13, 0
  br label %15

15:                                               ; preds = %11, %5
  %16 = phi ptr [ %.pre63, %11 ], [ %8, %5 ]
  %.not53 = phi i1 [ %14, %11 ], [ true, %5 ]
  %17 = getelementptr inbounds nuw i8, ptr %16, i64 176
  %18 = load ptr, ptr %17, align 8
  %19 = call i64 %18(ptr noundef nonnull %0, i32 noundef %1) #2
  %20 = getelementptr inbounds nuw i8, ptr %0, i64 72
  %21 = load i8, ptr %20, align 8
  %22 = trunc i8 %21 to i1
  br i1 %22, label %40, label %23

23:                                               ; preds = %15
  %24 = getelementptr inbounds nuw i8, ptr %0, i64 64
  %25 = load i64, ptr %24, align 8
  %26 = icmp ugt i64 %25, 1
  br i1 %26, label %27, label %40

27:                                               ; preds = %23
  %28 = getelementptr inbounds nuw i8, ptr %0, i64 56
  %29 = load i64, ptr %28, align 8
  %.not54 = icmp ult i64 %2, %29
  br i1 %.not54, label %40, label %30

30:                                               ; preds = %27
  %31 = urem i64 %19, %25
  %.not55 = icmp eq i64 %31, 0
  br i1 %.not55, label %40, label %32

32:                                               ; preds = %30
  %33 = sub i64 %25, %31
  %.not56 = icmp eq ptr %3, null
  br i1 %.not56, label %38, label %34

34:                                               ; preds = %32
  %35 = getelementptr inbounds nuw i8, ptr %0, i64 48
  %36 = load i64, ptr %35, align 8
  %37 = sub i64 %19, %36
  store i64 %37, ptr %3, align 8
  br label %38

38:                                               ; preds = %34, %32
  %.not57 = icmp eq ptr %4, null
  br i1 %.not57, label %40, label %39

39:                                               ; preds = %38
  store i64 %33, ptr %4, align 8
  br label %40

40:                                               ; preds = %30, %39, %38, %27, %23, %15
  %.0 = phi i64 [ 0, %15 ], [ %33, %39 ], [ %33, %38 ], [ 0, %30 ], [ 0, %27 ], [ 0, %23 ]
  %41 = load ptr, ptr %7, align 8
  %42 = getelementptr inbounds nuw i8, ptr %41, i64 160
  %43 = load ptr, ptr %42, align 8
  %.not58 = icmp eq ptr %43, null
  br i1 %.not58, label %53, label %44

44:                                               ; preds = %40
  %45 = call i64 @H5CX_get_dxpl() #2
  %46 = select i1 %.not53, i64 %.0, i64 0
  %47 = add i64 %46, %2
  %48 = call i64 %43(ptr noundef nonnull %0, i32 noundef %1, i64 noundef %45, i64 noundef %47) #2
  %.not60 = icmp eq i64 %48, -1
  br i1 %.not60, label %49, label %H5FD__extend.exit

49:                                               ; preds = %44
  %50 = load i64, ptr @H5E_VFL_g, align 8
  %51 = load i64, ptr @H5E_NOSPACE_g, align 8
  %52 = call i32 (ptr, ptr, i32, i64, i64, ptr, ...) @H5E_printf_stack(ptr noundef nonnull @.str.1, ptr noundef nonnull @__func__.H5FD__alloc_real, i32 noundef 184, i64 noundef %50, i64 noundef %51, ptr noundef nonnull @.str.2) #2
  br label %83

53:                                               ; preds = %40
  %54 = getelementptr inbounds nuw i8, ptr %41, i64 176
  %55 = load ptr, ptr %54, align 8
  %56 = call i64 %55(ptr noundef nonnull %0, i32 noundef %1) #2
  %57 = icmp eq i64 %56, -1
  br i1 %57, label %73, label %58

58:                                               ; preds = %53
  %59 = add i64 %.0, %2
  %60 = add i64 %59, %56
  %61 = icmp eq i64 %60, -1
  %62 = icmp ult i64 %60, %56
  %or.cond.i = or i1 %61, %62
  br i1 %or.cond.i, label %73, label %63

63:                                               ; preds = %58
  %64 = getelementptr inbounds nuw i8, ptr %0, i64 40
  %65 = load i64, ptr %64, align 8
  %66 = icmp ugt i64 %60, %65
  br i1 %66, label %73, label %67

67:                                               ; preds = %63
  %68 = load ptr, ptr %7, align 8
  %69 = getelementptr inbounds nuw i8, ptr %68, i64 184
  %70 = load ptr, ptr %69, align 8
  %71 = call i32 %70(ptr noundef nonnull %0, i32 noundef %1, i64 noundef %60) #2
  %72 = icmp slt i32 %71, 0
  br i1 %72, label %73, label %.H5FD__extend.exit_crit_edge

.H5FD__extend.exit_crit_edge:                     ; preds = %67
  %.pre64 = select i1 %.not53, i64 %.0, i64 0
  br label %H5FD__extend.exit

73:                                               ; preds = %53, %58, %63, %67
  %.sink.i = phi i32 [ 104, %53 ], [ 104, %58 ], [ 104, %63 ], [ 112, %67 ]
  %74 = load i64, ptr @H5E_VFL_g, align 8
  %75 = load i64, ptr @H5E_NOSPACE_g, align 8
  %76 = call i32 (ptr, ptr, i32, i64, i64, ptr, ...) @H5E_printf_stack(ptr noundef nonnull @.str.1, ptr noundef nonnull @__func__.H5FD__extend, i32 noundef %.sink.i, i64 noundef %74, i64 noundef %75, ptr noundef nonnull @.str.13) #2
  %77 = load i64, ptr @H5E_VFL_g, align 8
  %78 = load i64, ptr @H5E_NOSPACE_g, align 8
  %79 = call i32 (ptr, ptr, i32, i64, i64, ptr, ...) @H5E_printf_stack(ptr noundef nonnull @.str.1, ptr noundef nonnull @__func__.H5FD__alloc_real, i32 noundef 189, i64 noundef %77, i64 noundef %78, ptr noundef nonnull @.str.3) #2
  br label %83

H5FD__extend.exit:                                ; preds = %.H5FD__extend.exit_crit_edge, %44
  %.pre-phi = phi i64 [ %.pre64, %.H5FD__extend.exit_crit_edge ], [ %46, %44 ]
  %.1 = phi i64 [ %56, %.H5FD__extend.exit_crit_edge ], [ %48, %44 ]
  %spec.select = add i64 %.1, %.pre-phi
  %80 = getelementptr inbounds nuw i8, ptr %0, i64 48
  %81 = load i64, ptr %80, align 8
  %82 = sub i64 %spec.select, %81
  br label %83

83:                                               ; preds = %H5FD__extend.exit, %73, %49
  %.044 = phi i64 [ %82, %H5FD__extend.exit ], [ -1, %49 ], [ -1, %73 ]
  ret i64 %.044
}